; Function Attrs: nounwind uwtable
define internal void @allow_run_as_root(ptr noundef readonly captures(address) %0) #0 {
  %2 = getelementptr inbounds nuw i8, ptr %0, i64 240
  %3 = getelementptr inbounds nuw i8, ptr %0, i64 360
  %.01.i.i = load ptr, ptr %3, align 8, !tbaa !8
  %.not2.i.i = icmp eq ptr %.01.i.i, %2
  br i1 %.not2.i.i, label %pmix_cmd_line_is_taken.exit, label %.lr.ph.i.i

.lr.ph.i.i:                                       ; preds = %1, %8
  %.03.i.i = phi ptr [ %.0.i.i, %8 ], [ %.01.i.i, %1 ]
  %4 = getelementptr inbounds nuw i8, ptr %.03.i.i, i64 144
  %5 = load ptr, ptr %4, align 8, !tbaa !15
  %6 = tail call i32 @strcmp(ptr noundef nonnull dereferenceable(1) %5, ptr noundef nonnull dereferenceable(18) @.str.29) #7
  %7 = icmp eq i32 %6, 0
  br i1 %7, label %10, label %8

8:                                                ; preds = %.lr.ph.i.i
  %9 = getelementptr inbounds nuw i8, ptr %.03.i.i, i64 120
  %.0.i.i = load ptr, ptr %9, align 8, !tbaa !8
  %.not.i.i = icmp eq ptr %.0.i.i, %2
  br i1 %.not.i.i, label %pmix_cmd_line_is_taken.exit, label %.lr.ph.i.i, !llvm.loop !32

10:                                               ; preds = %.lr.ph.i.i
  store i8 1, ptr @prte_allow_run_as_root, align 1, !tbaa !33
  br label %23

pmix_cmd_line_is_taken.exit:                      ; preds = %8, %1
  %11 = tail call ptr @getenv(ptr noundef nonnull @.str.30) #8
  %.not = icmp eq ptr %11, null
  br i1 %.not, label %.tail.thread, label %12

12:                                               ; preds = %pmix_cmd_line_is_taken.exit
  %13 = tail call ptr @getenv(ptr noundef nonnull @.str.31) #8
  %.not4 = icmp eq ptr %13, null
  br i1 %.not4, label %.tail.thread, label %sub_0

sub_0:                                            ; preds = %12
  %14 = load i8, ptr %11, align 1
  %.not12 = icmp eq i8 %14, 49
  br i1 %.not12, label %.tail, label %.tail.thread

.tail:                                            ; preds = %sub_0
  %15 = getelementptr inbounds nuw i8, ptr %11, i64 1
  %16 = load i8, ptr %15, align 1
  %17 = icmp eq i8 %16, 0
  br i1 %17, label %sub_09, label %.tail.thread

sub_09:                                           ; preds = %.tail
  %18 = load i8, ptr %13, align 1
  %.not13 = icmp eq i8 %18, 49
  br i1 %.not13, label %.tail8, label %.tail.thread

.tail8:                                           ; preds = %sub_09
  %19 = getelementptr inbounds nuw i8, ptr %13, i64 1
  %20 = load i8, ptr %19, align 1
  %21 = icmp eq i8 %20, 0
  br i1 %21, label %22, label %.tail.thread

22:                                               ; preds = %.tail8
  store i8 1, ptr @prte_allow_run_as_root, align 1, !tbaa !33
  br label %23

.tail.thread:                                     ; preds = %sub_09, %sub_0, %.tail, %.tail8, %12, %pmix_cmd_line_is_taken.exit
  tail call void @prte_schizo_base_root_error_msg() #8
  br label %23

23:                                               ; preds = %.tail.thread, %22, %10
  ret void
}